target datalayout = "e-m:e-p270:32:32-p271:32:32-p272:64:64-i64:64-i128:128-f80:128-n8:16:32:64-S128"
target triple = "x86_64-pc-linux-gnu"

; Function Attrs: mustprogress nounwind uwtable
define hidden noundef i64 @_ZN6cvtest8readSeedEPKc(ptr noundef %0) #7 {
  %2 = alloca i64, align 8
  %3 = alloca ptr, align 8
  %4 = alloca i64, align 8
  %5 = alloca i32, align 4
  %6 = alloca i32, align 4
  %7 = alloca i32, align 4
  store ptr %0, ptr %3, align 8, !tbaa !25
  call void @llvm.lifetime.start.p0(i64 8, ptr %4) #3
  store i64 0, ptr %4, align 8, !tbaa !29
  %8 = load ptr, ptr %3, align 8, !tbaa !25
  %9 = icmp ne ptr %8, null
  br i1 %9, label %10, label %75

10:                                               ; preds = %1
  %11 = load ptr, ptr %3, align 8, !tbaa !25
  %12 = call i64 @strlen(ptr noundef %11) #26
  %13 = icmp eq i64 %12, 16
  br i1 %13, label %14, label %75

14:                                               ; preds = %10
  call void @llvm.lifetime.start.p0(i64 4, ptr %5) #3
  store i32 0, ptr %5, align 4, !tbaa !8
  br label %15

15:                                               ; preds = %69, %14
  %16 = load ptr, ptr %3, align 8, !tbaa !25
  %17 = load i32, ptr %5, align 4, !tbaa !8
  %18 = sext i32 %17 to i64
  %19 = getelementptr inbounds i8, ptr %16, i64 %18
  %20 = load i8, ptr %19, align 1, !tbaa !31
  %21 = icmp ne i8 %20, 0
  br i1 %21, label %23, label %22

22:                                               ; preds = %15
  store i32 2, ptr %6, align 4
  br label %72

23:                                               ; preds = %15
  call void @llvm.lifetime.start.p0(i64 4, ptr %7) #3
  %24 = load ptr, ptr %3, align 8, !tbaa !25
  %25 = load i32, ptr %5, align 4, !tbaa !8
  %26 = sext i32 %25 to i64
  %27 = getelementptr inbounds i8, ptr %24, i64 %26
  %28 = load i8, ptr %27, align 1, !tbaa !31
  %29 = sext i8 %28 to i32
  %30 = call i32 @tolower(i32 noundef %29) #26
  store i32 %30, ptr %7, align 4, !tbaa !8
  %31 = load i32, ptr %7, align 4, !tbaa !8
  %32 = call i32 @isxdigit(i32 noundef %31) #26
  %33 = icmp ne i32 %32, 0
  br i1 %33, label %35, label %34

34:                                               ; preds = %23
  store i64 0, ptr %2, align 8
  store i32 1, ptr %6, align 4
  br label %66

35:                                               ; preds = %23
  %36 = load i64, ptr %4, align 8, !tbaa !29
  %37 = mul nsw i64 %36, 16
  %38 = load ptr, ptr %3, align 8, !tbaa !25
  %39 = load i32, ptr %5, align 4, !tbaa !8
  %40 = sext i32 %39 to i64
  %41 = getelementptr inbounds i8, ptr %38, i64 %40
  %42 = load i8, ptr %41, align 1, !tbaa !31
  %43 = sext i8 %42 to i32
  %44 = icmp slt i32 %43, 97
  br i1 %44, label %45, label %53

45:                                               ; preds = %35
  %46 = load ptr, ptr %3, align 8, !tbaa !25
  %47 = load i32, ptr %5, align 4, !tbaa !8
  %48 = sext i32 %47 to i64
  %49 = getelementptr inbounds i8, ptr %46, i64 %48
  %50 = load i8, ptr %49, align 1, !tbaa !31
  %51 = sext i8 %50 to i32
  %52 = sub nsw i32 %51, 48
  br label %62

53:                                               ; preds = %35
  %54 = load ptr, ptr %3, align 8, !tbaa !25
  %55 = load i32, ptr %5, align 4, !tbaa !8
  %56 = sext i32 %55 to i64
  %57 = getelementptr inbounds i8, ptr %54, i64 %56
  %58 = load i8, ptr %57, align 1, !tbaa !31
  %59 = sext i8 %58 to i32
  %60 = sub nsw i32 %59, 97
  %61 = add nsw i32 %60, 10
  br label %62

62:                                               ; preds = %53, %45
  %63 = phi i32 [ %52, %45 ], [ %61, %53 ]
  %64 = sext i32 %63 to i64
  %65 = add nsw i64 %37, %64
  store i64 %65, ptr %4, align 8, !tbaa !29
  store i32 0, ptr %6, align 4
  br label %66

66:                                               ; preds = %62, %34
  call void @llvm.lifetime.end.p0(i64 4, ptr %7) #3
  %67 = load i32, ptr %6, align 4
  switch i32 %67, label %72 [
    i32 0, label %68
  ]

68:                                               ; preds = %66
  br label %69

69:                                               ; preds = %68
  %70 = load i32, ptr %5, align 4, !tbaa !8
  %71 = add nsw i32 %70, 1
  store i32 %71, ptr %5, align 4, !tbaa !8
  br label %15, !llvm.loop !32

72:                                               ; preds = %66, %22
  call void @llvm.lifetime.end.p0(i64 4, ptr %5) #3
  %73 = load i32, ptr %6, align 4
  switch i32 %73, label %77 [
    i32 2, label %74
  ]

74:                                               ; preds = %72
  br label %75

75:                                               ; preds = %74, %10, %1
  %76 = load i64, ptr %4, align 8, !tbaa !29
  store i64 %76, ptr %2, align 8
  store i32 1, ptr %6, align 4
  br label %77

77:                                               ; preds = %75, %72
  call void @llvm.lifetime.end.p0(i64 8, ptr %4) #3
  %78 = load i64, ptr %2, align 8
  ret i64 %78
}