; Function Attrs: mustprogress nofree nounwind willreturn memory(read) uwtable
define hidden noundef i64 @_ZN6cvtest8readSeedEPKc(ptr noundef readonly %0) local_unnamed_addr #5 {
  %.not = icmp eq ptr %0, null
  br i1 %.not, label %.thread, label %2

2:                                                ; preds = %1
  %3 = tail call i64 @strlen(ptr noundef nonnull dereferenceable(1) %0) #43
  %4 = icmp eq i64 %3, 16
  br i1 %4, label %.preheader, label %.thread

.preheader:                                       ; preds = %2
  %5 = load i8, ptr %0, align 1, !tbaa !14
  %.not3033 = icmp eq i8 %5, 0
  br i1 %.not3033, label %.thread, label %.lr.ph

.lr.ph:                                           ; preds = %.preheader, %10
  %indvars.iv = phi i64 [ %indvars.iv.next, %10 ], [ 0, %.preheader ]
  %6 = phi i8 [ %17, %10 ], [ %5, %.preheader ]
  %.12334 = phi i64 [ %15, %10 ], [ 0, %.preheader ]
  %7 = sext i8 %6 to i32
  %8 = tail call i32 @tolower(i32 noundef %7) #43
  %9 = tail call i32 @isxdigit(i32 noundef %8) #43
  %.not31.not = icmp eq i32 %9, 0
  br i1 %.not31.not, label %.thread, label %10

10:                                               ; preds = %.lr.ph
  %11 = shl nsw i64 %.12334, 4
  %12 = icmp slt i8 %6, 97
  %.v = select i1 %12, i32 -48, i32 -87
  %13 = add nsw i32 %.v, %7
  %14 = sext i32 %13 to i64
  %15 = add nsw i64 %11, %14
  %indvars.iv.next = add nuw nsw i64 %indvars.iv, 1
  %16 = getelementptr inbounds nuw i8, ptr %0, i64 %indvars.iv.next
  %17 = load i8, ptr %16, align 1, !tbaa !14
  %.not30 = icmp eq i8 %17, 0
  br i1 %.not30, label %.thread, label %.lr.ph, !llvm.loop !16

.thread:                                          ; preds = %.lr.ph, %10, %.preheader, %1, %2
  %.3 = phi i64 [ 0, %2 ], [ 0, %1 ], [ 0, %.preheader ], [ 0, %.lr.ph ], [ %15, %10 ]
  ret i64 %.3
}